target datalayout = "e-m:e-p270:32:32-p271:32:32-p272:64:64-i64:64-i128:128-f80:128-n8:16:32:64-S128"
target triple = "x86_64-pc-linux-gnu"

%struct.ComplexMatrix4 = type { [4 x [4 x double]], [4 x [4 x double]] }
%struct.Qureg = type { i32, i32, i32, i64, i64, i32, i32, %struct.ComplexArray, %struct.ComplexArray, %struct.ComplexArray, ptr, ptr, ptr, ptr, ptr, ptr }
%struct.ComplexArray = type { ptr, ptr }

; Function Attrs: nounwind uwtable
define void @statevec_twoQubitUnitary(ptr noundef byval(%struct.Qureg) align 8 %0, i32 noundef %1, i32 noundef %2, ptr noundef byval(%struct.ComplexMatrix4) align 8 %3) #0 {
  %5 = alloca i32, align 4
  %6 = alloca i32, align 4
  %7 = alloca i64, align 8
  store i32 %1, ptr %5, align 4, !tbaa !9
  store i32 %2, ptr %6, align 4, !tbaa !9
  call void @llvm.lifetime.start.p0(i64 8, ptr %7) #8
  store i64 0, ptr %7, align 8, !tbaa !11
  %8 = load i64, ptr %7, align 8, !tbaa !11
  %9 = load i32, ptr %5, align 4, !tbaa !9
  %10 = load i32, ptr %6, align 4, !tbaa !9
  call void @statevec_multiControlledTwoQubitUnitary(ptr noundef byval(%struct.Qureg) align 8 %0, i64 noundef %8, i32 noundef %9, i32 noundef %10, ptr noundef byval(%struct.ComplexMatrix4) align 8 %3)
  call void @llvm.lifetime.end.p0(i64 8, ptr %7) #8
  ret void
}

; Function Attrs: nounwind uwtable
define void @statevec_sqrtSwapGateConj(ptr noundef byval(%struct.Qureg) align 8 %0, i32 noundef %1, i32 noundef %2) #0 {
  %4 = alloca i32, align 4
  %5 = alloca i32, align 4
  %6 = alloca %struct.ComplexMatrix4, align 8
  store i32 %1, ptr %4, align 4, !tbaa !9
  store i32 %2, ptr %5, align 4, !tbaa !9
  call void @llvm.lifetime.start.p0(i64 256, ptr %6) #8
  call void @llvm.memset.p0.i64(ptr align 8 %6, i8 0, i64 256, i1 false)
  %7 = getelementptr inbounds nuw %struct.ComplexMatrix4, ptr %6, i32 0, i32 0
  %8 = getelementptr inbounds [4 x [4 x double]], ptr %7, i64 0, i64 0
  %9 = getelementptr inbounds [4 x double], ptr %8, i64 0, i64 0
  store double 1.000000e+00, ptr %9, align 8, !tbaa !18
  %10 = getelementptr inbounds nuw %struct.ComplexMatrix4, ptr %6, i32 0, i32 0
  %11 = getelementptr inbounds [4 x [4 x double]], ptr %10, i64 0, i64 3
  %12 = getelementptr inbounds [4 x double], ptr %11, i64 0, i64 3
  store double 1.000000e+00, ptr %12, align 8, !tbaa !18
  %13 = getelementptr inbounds nuw %struct.ComplexMatrix4, ptr %6, i32 0, i32 0
  %14 = getelementptr inbounds [4 x [4 x double]], ptr %13, i64 0, i64 1
  %15 = getelementptr inbounds [4 x double], ptr %14, i64 0, i64 1
  store double 5.000000e-01, ptr %15, align 8, !tbaa !18
  %16 = getelementptr inbounds nuw %struct.ComplexMatrix4, ptr %6, i32 0, i32 1
  %17 = getelementptr inbounds [4 x [4 x double]], ptr %16, i64 0, i64 1
  %18 = getelementptr inbounds [4 x double], ptr %17, i64 0, i64 1
  store double -5.000000e-01, ptr %18, align 8, !tbaa !18
  %19 = getelementptr inbounds nuw %struct.ComplexMatrix4, ptr %6, i32 0, i32 0
  %20 = getelementptr inbounds [4 x [4 x double]], ptr %19, i64 0, i64 1
  %21 = getelementptr inbounds [4 x double], ptr %20, i64 0, i64 2
  store double 5.000000e-01, ptr %21, align 8, !tbaa !18
  %22 = getelementptr inbounds nuw %struct.ComplexMatrix4, ptr %6, i32 0, i32 1
  %23 = getelementptr inbounds [4 x [4 x double]], ptr %22, i64 0, i64 1
  %24 = getelementptr inbounds [4 x double], ptr %23, i64 0, i64 2
  store double 5.000000e-01, ptr %24, align 8, !tbaa !18
  %25 = getelementptr inbounds nuw %struct.ComplexMatrix4, ptr %6, i32 0, i32 0
  %26 = getelementptr inbounds [4 x [4 x double]], ptr %25, i64 0, i64 2
  %27 = getelementptr inbounds [4 x double], ptr %26, i64 0, i64 1
  store double 5.000000e-01, ptr %27, align 8, !tbaa !18
  %28 = getelementptr inbounds nuw %struct.ComplexMatrix4, ptr %6, i32 0, i32 1
  %29 = getelementptr inbounds [4 x [4 x double]], ptr %28, i64 0, i64 2
  %30 = getelementptr inbounds [4 x double], ptr %29, i64 0, i64 1
  store double 5.000000e-01, ptr %30, align 8, !tbaa !18
  %31 = getelementptr inbounds nuw %struct.ComplexMatrix4, ptr %6, i32 0, i32 0
  %32 = getelementptr inbounds [4 x [4 x double]], ptr %31, i64 0, i64 2
  %33 = getelementptr inbounds [4 x double], ptr %32, i64 0, i64 2
  store double 5.000000e-01, ptr %33, align 8, !tbaa !18
  %34 = getelementptr inbounds nuw %struct.ComplexMatrix4, ptr %6, i32 0, i32 1
  %35 = getelementptr inbounds [4 x [4 x double]], ptr %34, i64 0, i64 2
  %36 = getelementptr inbounds [4 x double], ptr %35, i64 0, i64 2
  store double -5.000000e-01, ptr %36, align 8, !tbaa !18
  %37 = load i32, ptr %4, align 4, !tbaa !9
  %38 = load i32, ptr %5, align 4, !tbaa !9
  call void @statevec_twoQubitUnitary(ptr noundef byval(%struct.Qureg) align 8 %0, i32 noundef %37, i32 noundef %38, ptr noundef byval(%struct.ComplexMatrix4) align 8 %6)
  call void @llvm.lifetime.end.p0(i64 256, ptr %6) #8
  ret void
}