; Function Attrs: nounwind uwtable
define void @statevec_sqrtSwapGateConj(ptr noundef readonly byval(%struct.Qureg) align 8 captures(none) %0, i32 noundef %1, i32 noundef %2) local_unnamed_addr #11 {
  %4 = alloca %struct.ComplexMatrix4, align 8
  %.sroa.5.0..sroa_idx = getelementptr inbounds nuw i8, ptr %4, i64 8
  call void @llvm.lifetime.start.p0(i64 256, ptr nonnull %4)
  call void @llvm.memset.p0.i64(ptr noundef nonnull align 8 dereferenceable(32) %.sroa.5.0..sroa_idx, i8 0, i64 32, i1 false)
  %.sroa.7.0..sroa_idx = getelementptr inbounds nuw i8, ptr %4, i64 56
  call void @llvm.memset.p0.i64(ptr noundef nonnull align 8 dereferenceable(16) %.sroa.7.0..sroa_idx, i8 0, i64 16, i1 false)
  %.sroa.9.0..sroa_idx = getelementptr inbounds nuw i8, ptr %4, i64 88
  call void @llvm.memset.p0.i64(ptr noundef nonnull align 8 dereferenceable(32) %.sroa.9.0..sroa_idx, i8 0, i64 32, i1 false)
  %.sroa.10.0..sroa_idx = getelementptr inbounds nuw i8, ptr %4, i64 128
  call void @llvm.memset.p0.i64(ptr noundef nonnull align 8 dereferenceable(40) %.sroa.10.0..sroa_idx, i8 0, i64 40, i1 false)
  %.sroa.12.0..sroa_idx = getelementptr inbounds nuw i8, ptr %4, i64 184
  call void @llvm.memset.p0.i64(ptr noundef nonnull align 8 dereferenceable(16) %.sroa.12.0..sroa_idx, i8 0, i64 16, i1 false)
  %.sroa.14.0..sroa_idx = getelementptr inbounds nuw i8, ptr %4, i64 216
  call void @llvm.memset.p0.i64(ptr noundef nonnull align 8 dereferenceable(40) %.sroa.14.0..sroa_idx, i8 0, i64 40, i1 false)
  store double 1.000000e+00, ptr %4, align 8
  %.sroa.52.0..sroa_idx = getelementptr inbounds nuw i8, ptr %4, i64 40
  store double 5.000000e-01, ptr %.sroa.52.0..sroa_idx, align 8
  %.sroa.6.0..sroa_idx = getelementptr inbounds nuw i8, ptr %4, i64 48
  store double 5.000000e-01, ptr %.sroa.6.0..sroa_idx, align 8
  %.sroa.73.0..sroa_idx = getelementptr inbounds nuw i8, ptr %4, i64 72
  store double 5.000000e-01, ptr %.sroa.73.0..sroa_idx, align 8
  %.sroa.8.0..sroa_idx = getelementptr inbounds nuw i8, ptr %4, i64 80
  store double 5.000000e-01, ptr %.sroa.8.0..sroa_idx, align 8
  %.sroa.94.0..sroa_idx = getelementptr inbounds nuw i8, ptr %4, i64 120
  store double 1.000000e+00, ptr %.sroa.94.0..sroa_idx, align 8
  %.sroa.105.0..sroa_idx = getelementptr inbounds nuw i8, ptr %4, i64 168
  store double -5.000000e-01, ptr %.sroa.105.0..sroa_idx, align 8
  %.sroa.11.0..sroa_idx = getelementptr inbounds nuw i8, ptr %4, i64 176
  store double 5.000000e-01, ptr %.sroa.11.0..sroa_idx, align 8
  %.sroa.126.0..sroa_idx = getelementptr inbounds nuw i8, ptr %4, i64 200
  store double 5.000000e-01, ptr %.sroa.126.0..sroa_idx, align 8
  %.sroa.13.0..sroa_idx = getelementptr inbounds nuw i8, ptr %4, i64 208
  store double -5.000000e-01, ptr %.sroa.13.0..sroa_idx, align 8
  tail call void @statevec_multiControlledTwoQubitUnitary(ptr noundef nonnull byval(%struct.Qureg) align 8 %0, i64 noundef 0, i32 noundef %1, i32 noundef %2, ptr noundef nonnull byval(%struct.ComplexMatrix4) align 8 %4) #22
  call void @llvm.lifetime.end.p0(i64 256, ptr nonnull %4)
  ret void
}